; Function Attrs: mustprogress uwtable
define hidden void @_ZN8datatype10param_size4size7dec_refEv(ptr noundef nonnull align 8 dereferenceable(12) %0) local_unnamed_addr #4 align 2 {
  %2 = getelementptr inbounds nuw i8, ptr %0, i64 8
  %3 = load i32, ptr %2, align 8, !tbaa !99
  %4 = add i32 %3, -1
  store i32 %4, ptr %2, align 8, !tbaa !99
  %5 = icmp eq i32 %4, 0
  br i1 %5, label %6, label %9

6:                                                ; preds = %1
  %7 = load ptr, ptr %0, align 8, !tbaa !68
  %8 = load ptr, ptr %7, align 8
  tail call void %8(ptr noundef nonnull align 8 dereferenceable(12) %0) #28
  tail call void @_ZN6memory10deallocateEPv(ptr noundef nonnull %0)
  br label %9

9:                                                ; preds = %6, %1
  ret void
}